; Function Attrs: mustprogress uwtable
define internal void @"_ZNSt17_Function_handlerIFvN3nix18FileTransferResultEEZZNS0_8fetchers15downloadTarballERKNSt7__cxx1112basic_stringIcSt11char_traitsIcESaIcEEERKSt6vectorISt4pairIS9_S9_ESaISE_EEENK3$_0clERNS0_4SinkEEUlS1_E_E9_M_invokeERKSt9_Any_dataOS1_"(ptr nocapture noundef nonnull readonly align 8 dereferenceable(16) %0, ptr noundef nonnull align 8 dereferenceable(144) %1) #4 align 2 personality ptr @__gxx_personality_v0 {
  %3 = alloca %"struct.nix::FileTransferResult", align 8
  %.val = load ptr, ptr %0, align 8
  call void @llvm.lifetime.start.p0(i64 144, ptr nonnull %3)
  call void @_ZN3nix18FileTransferResultC2EOS0_(ptr noundef nonnull align 8 dereferenceable(144) %3, ptr noundef nonnull align 8 dereferenceable(144) %1) #25
  %.val.i.i = load ptr, ptr %.val, align 8
  %4 = call noundef i32 @pthread_mutex_lock(ptr noundef nonnull %.val.i.i) #25, !noalias !83
  %.not.i.i.i.i.i.i.i.i = icmp eq i32 %4, 0
  br i1 %.not.i.i.i.i.i.i.i.i, label %_ZN3nix4SyncINS_18FileTransferResultESt5mutexE4lockEv.exit.i.i.i, label %5

5:                                                ; preds = %2
  invoke void @_ZSt20__throw_system_errori(i32 noundef %4) #27
          to label %.noexc.i.i unwind label %15

.noexc.i.i:                                       ; preds = %5
  unreachable

_ZN3nix4SyncINS_18FileTransferResultESt5mutexE4lockEv.exit.i.i.i: ; preds = %2
  %6 = getelementptr inbounds i8, ptr %.val.i.i, i64 40
  %7 = invoke noundef nonnull align 8 dereferenceable(144) ptr @_ZN3nix18FileTransferResultaSERKS0_(ptr noundef nonnull align 8 dereferenceable(144) %6, ptr noundef nonnull align 8 dereferenceable(144) %3)
          to label %8 unwind label %11

8:                                                ; preds = %_ZN3nix4SyncINS_18FileTransferResultESt5mutexE4lockEv.exit.i.i.i
  %.not1.i.i.i.i.i.i = icmp eq ptr %.val.i.i, null
  br i1 %.not1.i.i.i.i.i.i, label %"_ZSt10__invoke_rIvRZZN3nix8fetchers15downloadTarballERKNSt7__cxx1112basic_stringIcSt11char_traitsIcESaIcEEERKSt6vectorISt4pairIS7_S7_ESaISC_EEENK3$_0clERNS0_4SinkEEUlNS0_18FileTransferResultEE_JSK_EENSt9enable_ifIX16is_invocable_r_vIT_T0_DpT1_EESO_E4typeEOSP_DpOSQ_.exit", label %9

9:                                                ; preds = %8
  %10 = call noundef i32 @pthread_mutex_unlock(ptr noundef nonnull %.val.i.i) #25
  br label %"_ZSt10__invoke_rIvRZZN3nix8fetchers15downloadTarballERKNSt7__cxx1112basic_stringIcSt11char_traitsIcESaIcEEERKSt6vectorISt4pairIS7_S7_ESaISC_EEENK3$_0clERNS0_4SinkEEUlNS0_18FileTransferResultEE_JSK_EENSt9enable_ifIX16is_invocable_r_vIT_T0_DpT1_EESO_E4typeEOSP_DpOSQ_.exit"

11:                                               ; preds = %_ZN3nix4SyncINS_18FileTransferResultESt5mutexE4lockEv.exit.i.i.i
  %12 = landingpad { ptr, i32 }
          cleanup
  %.not1.i.i.i3.i.i.i = icmp eq ptr %.val.i.i, null
  br i1 %.not1.i.i.i3.i.i.i, label %.body.i.i, label %13

13:                                               ; preds = %11
  %14 = call noundef i32 @pthread_mutex_unlock(ptr noundef nonnull %.val.i.i) #25
  br label %.body.i.i

15:                                               ; preds = %5
  %16 = landingpad { ptr, i32 }
          cleanup
  br label %.body.i.i

.body.i.i:                                        ; preds = %15, %13, %11
  %eh.lpad-body.i.i = phi { ptr, i32 } [ %16, %15 ], [ %12, %13 ], [ %12, %11 ]
  call void @_ZN3nix18FileTransferResultD2Ev(ptr noundef nonnull align 8 dereferenceable(144) %3) #25
  resume { ptr, i32 } %eh.lpad-body.i.i

"_ZSt10__invoke_rIvRZZN3nix8fetchers15downloadTarballERKNSt7__cxx1112basic_stringIcSt11char_traitsIcESaIcEEERKSt6vectorISt4pairIS7_S7_ESaISC_EEENK3$_0clERNS0_4SinkEEUlNS0_18FileTransferResultEE_JSK_EENSt9enable_ifIX16is_invocable_r_vIT_T0_DpT1_EESO_E4typeEOSP_DpOSQ_.exit": ; preds = %8, %9
  call void @_ZN3nix18FileTransferResultD2Ev(ptr noundef nonnull align 8 dereferenceable(144) %3) #25
  call void @llvm.lifetime.end.p0(i64 144, ptr nonnull %3)
  ret void
}